target datalayout = "e-m:e-p270:32:32-p271:32:32-p272:64:64-i64:64-i128:128-f80:128-n8:16:32:64-S128"
target triple = "x86_64-pc-linux-gnu"

%"class.cv::FileNode" = type { ptr, i64, i64 }

; Function Attrs: mustprogress uwtable
define noundef ptr @_ZNK2cv8FileNode3ptrEv(ptr noundef nonnull align 8 dereferenceable(24) %0) #4 align 2 {
  %2 = alloca ptr, align 8
  store ptr %0, ptr %2, align 8, !tbaa !212
  %3 = load ptr, ptr %2, align 8
  %4 = getelementptr inbounds nuw %"class.cv::FileNode", ptr %3, i32 0, i32 0
  %5 = load ptr, ptr %4, align 8, !tbaa !243
  %6 = icmp ne ptr %5, null
  br i1 %6, label %8, label %7

7:                                                ; preds = %1
  br label %16

8:                                                ; preds = %1
  %9 = getelementptr inbounds nuw %"class.cv::FileNode", ptr %3, i32 0, i32 0
  %10 = load ptr, ptr %9, align 8, !tbaa !243
  %11 = getelementptr inbounds nuw %"class.cv::FileNode", ptr %3, i32 0, i32 1
  %12 = load i64, ptr %11, align 8, !tbaa !213
  %13 = getelementptr inbounds nuw %"class.cv::FileNode", ptr %3, i32 0, i32 2
  %14 = load i64, ptr %13, align 8, !tbaa !215
  %15 = call noundef ptr @_ZNK2cv11FileStorage4Impl10getNodePtrEmm(ptr noundef nonnull align 8 dereferenceable(700) %10, i64 noundef %12, i64 noundef %14)
  br label %16

16:                                               ; preds = %8, %7
  %17 = phi ptr [ null, %7 ], [ %15, %8 ]
  ret ptr %17
}

; Function Attrs: mustprogress uwtable
define noundef i32 @_ZNK2cv8FileNode4typeEv(ptr noundef nonnull align 8 dereferenceable(24) %0) #4 align 2 {
  %2 = alloca i32, align 4
  %3 = alloca ptr, align 8
  %4 = alloca ptr, align 8
  %5 = alloca i32, align 4
  store ptr %0, ptr %3, align 8, !tbaa !212
  %6 = load ptr, ptr %3, align 8
  call void @llvm.lifetime.start.p0(i64 8, ptr %4) #3
  %7 = call noundef ptr @_ZNK2cv8FileNode3ptrEv(ptr noundef nonnull align 8 dereferenceable(24) %6)
  store ptr %7, ptr %4, align 8, !tbaa !3
  %8 = load ptr, ptr %4, align 8, !tbaa !3
  %9 = icmp ne ptr %8, null
  br i1 %9, label %11, label %10

10:                                               ; preds = %1
  store i32 0, ptr %2, align 4
  store i32 1, ptr %5, align 4
  br label %16

11:                                               ; preds = %1
  %12 = load ptr, ptr %4, align 8, !tbaa !3
  %13 = load i8, ptr %12, align 1, !tbaa !10
  %14 = zext i8 %13 to i32
  %15 = and i32 %14, 7
  store i32 %15, ptr %2, align 4
  store i32 1, ptr %5, align 4
  br label %16

16:                                               ; preds = %11, %10
  call void @llvm.lifetime.end.p0(i64 8, ptr %4) #3
  %17 = load i32, ptr %2, align 4
  ret i32 %17
}

; Function Attrs: mustprogress uwtable
define noundef zeroext i1 @_ZNK2cv8FileNode5isMapEv(ptr noundef nonnull align 8 dereferenceable(24) %0) #4 align 2 {
  %2 = alloca ptr, align 8
  store ptr %0, ptr %2, align 8, !tbaa !212
  %3 = load ptr, ptr %2, align 8
  %4 = call noundef i32 @_ZNK2cv8FileNode4typeEv(ptr noundef nonnull align 8 dereferenceable(24) %3)
  %5 = icmp eq i32 %4, 5
  ret i1 %5
}